; Function Attrs: mustprogress uwtable
define dso_local noundef ptr @_ZN6google8protobuf5Arena18CreateMaybeMessageIN11conformance19ConformanceResponseEJEEEPT_PS1_DpOT0_(ptr noundef %arena) local_unnamed_addr #3 align 2 personality ptr @__gxx_personality_v0 {
entry:
  %cmp.i = icmp eq ptr %arena, null
  br i1 %cmp.i, label %if.then.i, label %if.else.i

if.then.i:                                        ; preds = %entry
  %call.i = tail call noalias noundef nonnull dereferenceable(32) ptr @_Znwm(i64 noundef 32) #22
  %_internal_metadata_.i.i.i.i = getelementptr inbounds i8, ptr %call.i, i64 8
  store ptr null, ptr %_internal_metadata_.i.i.i.i, align 8
  store ptr getelementptr inbounds ({ [22 x ptr] }, ptr @_ZTVN11conformance19ConformanceResponseE, i64 0, i32 0, i64 2), ptr %call.i, align 8
  %_cached_size_.i.i = getelementptr inbounds i8, ptr %call.i, i64 24
  store i32 0, ptr %_cached_size_.i.i, align 4
  %0 = load atomic i32, ptr @scc_info_ConformanceResponse_conformance_2fconformance_2eproto acquire, align 8
  %cmp.not.i.i.i.i = icmp eq i32 %0, 0
  br i1 %cmp.not.i.i.i.i, label %_ZN6google8protobuf5Arena21CreateMessageInternalIN11conformance19ConformanceResponseEEEPT_PS1_.exit, label %if.then.i.i.i.i

if.then.i.i.i.i:                                  ; preds = %if.then.i
  invoke void @_ZN6google8protobuf8internal11InitSCCImplEPNS1_11SCCInfoBaseE(ptr noundef nonnull @scc_info_ConformanceResponse_conformance_2fconformance_2eproto)
          to label %_ZN6google8protobuf5Arena21CreateMessageInternalIN11conformance19ConformanceResponseEEEPT_PS1_.exit unwind label %lpad.i

lpad.i:                                           ; preds = %if.then.i.i.i.i
  %1 = landingpad { ptr, i32 }
          cleanup
  tail call void @_ZdlPv(ptr noundef nonnull %call.i) #23
  resume { ptr, i32 } %1

if.else.i:                                        ; preds = %entry
  %hooks_cookie_.i = getelementptr inbounds i8, ptr %arena, i64 112
  %2 = load ptr, ptr %hooks_cookie_.i, align 8
  %cmp.not.i = icmp eq ptr %2, null
  br i1 %cmp.not.i, label %_ZNK6google8protobuf5Arena9AllocHookEPKSt9type_infom.exit, label %if.then.i4

if.then.i4:                                       ; preds = %if.else.i
  tail call void @_ZNK6google8protobuf5Arena17OnArenaAllocationEPKSt9type_infom(ptr noundef nonnull align 8 dereferenceable(120) %arena, ptr noundef nonnull @_ZTIN11conformance19ConformanceResponseE, i64 noundef 32)
  br label %_ZNK6google8protobuf5Arena9AllocHookEPKSt9type_infom.exit

_ZNK6google8protobuf5Arena9AllocHookEPKSt9type_infom.exit: ; preds = %if.else.i, %if.then.i4
  %call2.i8 = tail call noundef ptr @_ZN6google8protobuf5Arena21AllocateAlignedNoHookEm(ptr noundef nonnull align 8 dereferenceable(120) %arena, i64 noundef 32)
  %_internal_metadata_.i.i.i.i5 = getelementptr inbounds i8, ptr %call2.i8, i64 8
  store ptr %arena, ptr %_internal_metadata_.i.i.i.i5, align 8
  store ptr getelementptr inbounds ({ [22 x ptr] }, ptr @_ZTVN11conformance19ConformanceResponseE, i64 0, i32 0, i64 2), ptr %call2.i8, align 8
  %_cached_size_.i.i6 = getelementptr inbounds i8, ptr %call2.i8, i64 24
  store i32 0, ptr %_cached_size_.i.i6, align 4
  %3 = load atomic i32, ptr @scc_info_ConformanceResponse_conformance_2fconformance_2eproto acquire, align 8
  %cmp.not.i.i.i.i7 = icmp eq i32 %3, 0
  br i1 %cmp.not.i.i.i.i7, label %_ZN6google8protobuf5Arena21CreateMessageInternalIN11conformance19ConformanceResponseEEEPT_PS1_.exit, label %if.then.i.i.i.i8

if.then.i.i.i.i8:                                 ; preds = %_ZNK6google8protobuf5Arena9AllocHookEPKSt9type_infom.exit
  tail call void @_ZN6google8protobuf8internal11InitSCCImplEPNS1_11SCCInfoBaseE(ptr noundef nonnull @scc_info_ConformanceResponse_conformance_2fconformance_2eproto)
  br label %_ZN6google8protobuf5Arena21CreateMessageInternalIN11conformance19ConformanceResponseEEEPT_PS1_.exit

_ZN6google8protobuf5Arena21CreateMessageInternalIN11conformance19ConformanceResponseEEEPT_PS1_.exit: ; preds = %if.then.i.i.i.i8, %_ZNK6google8protobuf5Arena9AllocHookEPKSt9type_infom.exit, %if.then.i, %if.then.i.i.i.i
  %call.i.sink = phi ptr [ %call.i, %if.then.i.i.i.i ], [ %call.i, %if.then.i ], [ %call2.i8, %_ZNK6google8protobuf5Arena9AllocHookEPKSt9type_infom.exit ], [ %call2.i8, %if.then.i.i.i.i8 ]
  %_oneof_case_.i.i.i.i = getelementptr inbounds i8, ptr %call.i.sink, i64 28
  store i32 0, ptr %_oneof_case_.i.i.i.i, align 4
  ret ptr %call.i.sink
}